; Function Attrs: mustprogress nounwind uwtable
define internal void @_ZN4node4heap12_GLOBAL__N_118HeapSnapshotStream11EndOfStreamEv(ptr nocapture noundef nonnull align 8 dereferenceable(136) %this) unnamed_addr #3 align 2 {
entry:
  %ref.tmp = alloca %struct.uv_buf_t, align 8
  %call = tail call { ptr, i64 } @uv_buf_init(ptr noundef null, i32 noundef 0) #22
  %0 = extractvalue { ptr, i64 } %call, 0
  store ptr %0, ptr %ref.tmp, align 8
  %1 = getelementptr inbounds i8, ptr %ref.tmp, i64 8
  %2 = extractvalue { ptr, i64 } %call, 1
  store i64 %2, ptr %1, align 8
  %listener_.i = getelementptr inbounds i8, ptr %this, i64 64
  %3 = load ptr, ptr %listener_.i, align 8
  %vtable.i = load ptr, ptr %3, align 8
  %vfn.i = getelementptr inbounds i8, ptr %vtable.i, i64 24
  %4 = load ptr, ptr %vfn.i, align 8
  call void %4(ptr noundef nonnull align 8 dereferenceable(24) %3, i64 noundef -4095, ptr noundef nonnull align 8 dereferenceable(16) %ref.tmp) #22
  %snapshot_ = getelementptr inbounds i8, ptr %this, i64 128
  %5 = load ptr, ptr %snapshot_, align 8
  store ptr null, ptr %snapshot_, align 8
  %tobool.not.i.i = icmp eq ptr %5, null
  br i1 %tobool.not.i.i, label %_ZNSt10unique_ptrIKN2v812HeapSnapshotEN4node15FunctionDeleterIS2_XadL_ZNS3_4heap18DeleteHeapSnapshotEPS2_EEEEE5resetES6_.exit, label %if.then.i.i

if.then.i.i:                                      ; preds = %entry
  call void @_ZN2v812HeapSnapshot6DeleteEv(ptr noundef nonnull align 1 dereferenceable(1) %5) #22
  br label %_ZNSt10unique_ptrIKN2v812HeapSnapshotEN4node15FunctionDeleterIS2_XadL_ZNS3_4heap18DeleteHeapSnapshotEPS2_EEEEE5resetES6_.exit

_ZNSt10unique_ptrIKN2v812HeapSnapshotEN4node15FunctionDeleterIS2_XadL_ZNS3_4heap18DeleteHeapSnapshotEPS2_EEEEE5resetES6_.exit: ; preds = %entry, %if.then.i.i
  ret void
}